; Function Attrs: mustprogress uwtable
define void @_ZN15MainApplication22emitTapParameterSignalE7QStringS0_Pv(ptr noundef nonnull align 8 dereferenceable(216) %0, ptr nocapture noundef readonly %1, ptr nocapture noundef readonly %2, ptr noundef %3) local_unnamed_addr #3 align 2 personality ptr @__gxx_personality_v0 {
  %5 = alloca %class.QString, align 8
  %6 = alloca %class.QString, align 8
  %7 = load ptr, ptr %1, align 8
  store ptr %7, ptr %5, align 8
  %8 = getelementptr inbounds i8, ptr %5, i64 8
  %9 = getelementptr inbounds i8, ptr %1, i64 8
  %10 = load ptr, ptr %9, align 8
  store ptr %10, ptr %8, align 8
  %11 = getelementptr inbounds i8, ptr %5, i64 16
  %12 = getelementptr inbounds i8, ptr %1, i64 16
  %13 = load i64, ptr %12, align 8
  store i64 %13, ptr %11, align 8
  %.not.i.i.i = icmp eq ptr %7, null
  br i1 %.not.i.i.i, label %_ZN7QStringC2ERKS_.exit, label %14

14:                                               ; preds = %4
  %15 = atomicrmw add ptr %7, i32 1 seq_cst, align 4
  br label %_ZN7QStringC2ERKS_.exit

_ZN7QStringC2ERKS_.exit:                          ; preds = %4, %14
  %16 = load ptr, ptr %2, align 8
  store ptr %16, ptr %6, align 8
  %17 = getelementptr inbounds i8, ptr %6, i64 8
  %18 = getelementptr inbounds i8, ptr %2, i64 8
  %19 = load ptr, ptr %18, align 8
  store ptr %19, ptr %17, align 8
  %20 = getelementptr inbounds i8, ptr %6, i64 16
  %21 = getelementptr inbounds i8, ptr %2, i64 16
  %22 = load i64, ptr %21, align 8
  store i64 %22, ptr %20, align 8
  %.not.i.i.i3 = icmp eq ptr %16, null
  br i1 %.not.i.i.i3, label %_ZN7QStringC2ERKS_.exit4, label %23

23:                                               ; preds = %_ZN7QStringC2ERKS_.exit
  %24 = atomicrmw add ptr %16, i32 1 seq_cst, align 4
  br label %_ZN7QStringC2ERKS_.exit4

_ZN7QStringC2ERKS_.exit4:                         ; preds = %_ZN7QStringC2ERKS_.exit, %23
  invoke void @_ZN15MainApplication22openTapParameterDialogE7QStringS0_Pv(ptr noundef nonnull align 8 dereferenceable(216) %0, ptr noundef nonnull %5, ptr noundef nonnull %6, ptr noundef %3)
          to label %25 unwind label %34

25:                                               ; preds = %_ZN7QStringC2ERKS_.exit4
  %26 = load ptr, ptr %6, align 8
  %.not.i.i.i5 = icmp eq ptr %26, null
  br i1 %.not.i.i.i5, label %_ZN7QStringD2Ev.exit, label %_ZN17QArrayDataPointerIDsE5derefEv.exit.i.i

_ZN17QArrayDataPointerIDsE5derefEv.exit.i.i:      ; preds = %25
  %27 = atomicrmw sub ptr %26, i32 1 seq_cst, align 4
  %.not.i.i = icmp eq i32 %27, 1
  br i1 %.not.i.i, label %28, label %_ZN7QStringD2Ev.exit

28:                                               ; preds = %_ZN17QArrayDataPointerIDsE5derefEv.exit.i.i
  %29 = load ptr, ptr %6, align 8
  call void @_ZN10QArrayData10deallocateEPS_xx(ptr noundef %29, i64 noundef 2, i64 noundef 8) #26
  br label %_ZN7QStringD2Ev.exit

_ZN7QStringD2Ev.exit:                             ; preds = %25, %_ZN17QArrayDataPointerIDsE5derefEv.exit.i.i, %28
  %30 = load ptr, ptr %5, align 8
  %.not.i.i.i6 = icmp eq ptr %30, null
  br i1 %.not.i.i.i6, label %_ZN7QStringD2Ev.exit9, label %_ZN17QArrayDataPointerIDsE5derefEv.exit.i.i7

_ZN17QArrayDataPointerIDsE5derefEv.exit.i.i7:     ; preds = %_ZN7QStringD2Ev.exit
  %31 = atomicrmw sub ptr %30, i32 1 seq_cst, align 4
  %.not.i.i8 = icmp eq i32 %31, 1
  br i1 %.not.i.i8, label %32, label %_ZN7QStringD2Ev.exit9

32:                                               ; preds = %_ZN17QArrayDataPointerIDsE5derefEv.exit.i.i7
  %33 = load ptr, ptr %5, align 8
  call void @_ZN10QArrayData10deallocateEPS_xx(ptr noundef %33, i64 noundef 2, i64 noundef 8) #26
  br label %_ZN7QStringD2Ev.exit9

_ZN7QStringD2Ev.exit9:                            ; preds = %_ZN7QStringD2Ev.exit, %_ZN17QArrayDataPointerIDsE5derefEv.exit.i.i7, %32
  ret void

34:                                               ; preds = %_ZN7QStringC2ERKS_.exit4
  %35 = landingpad { ptr, i32 }
          cleanup
  %36 = load ptr, ptr %6, align 8
  %.not.i.i.i10 = icmp eq ptr %36, null
  br i1 %.not.i.i.i10, label %_ZN7QStringD2Ev.exit13, label %_ZN17QArrayDataPointerIDsE5derefEv.exit.i.i11

_ZN17QArrayDataPointerIDsE5derefEv.exit.i.i11:    ; preds = %34
  %37 = atomicrmw sub ptr %36, i32 1 seq_cst, align 4
  %.not.i.i12 = icmp eq i32 %37, 1
  br i1 %.not.i.i12, label %38, label %_ZN7QStringD2Ev.exit13

38:                                               ; preds = %_ZN17QArrayDataPointerIDsE5derefEv.exit.i.i11
  %39 = load ptr, ptr %6, align 8
  call void @_ZN10QArrayData10deallocateEPS_xx(ptr noundef %39, i64 noundef 2, i64 noundef 8) #26
  br label %_ZN7QStringD2Ev.exit13

_ZN7QStringD2Ev.exit13:                           ; preds = %34, %_ZN17QArrayDataPointerIDsE5derefEv.exit.i.i11, %38
  %40 = load ptr, ptr %5, align 8
  %.not.i.i.i14 = icmp eq ptr %40, null
  br i1 %.not.i.i.i14, label %_ZN7QStringD2Ev.exit17, label %_ZN17QArrayDataPointerIDsE5derefEv.exit.i.i15

_ZN17QArrayDataPointerIDsE5derefEv.exit.i.i15:    ; preds = %_ZN7QStringD2Ev.exit13
  %41 = atomicrmw sub ptr %40, i32 1 seq_cst, align 4
  %.not.i.i16 = icmp eq i32 %41, 1
  br i1 %.not.i.i16, label %42, label %_ZN7QStringD2Ev.exit17

42:                                               ; preds = %_ZN17QArrayDataPointerIDsE5derefEv.exit.i.i15
  %43 = load ptr, ptr %5, align 8
  call void @_ZN10QArrayData10deallocateEPS_xx(ptr noundef %43, i64 noundef 2, i64 noundef 8) #26
  br label %_ZN7QStringD2Ev.exit17

_ZN7QStringD2Ev.exit17:                           ; preds = %_ZN7QStringD2Ev.exit13, %_ZN17QArrayDataPointerIDsE5derefEv.exit.i.i15, %42
  resume { ptr, i32 } %35
}